target datalayout = "e-m:e-p270:32:32-p271:32:32-p272:64:64-i64:64-i128:128-f80:128-n8:16:32:64-S128"
target triple = "x86_64-pc-linux-gnu"

%"class.std::__cxx11::basic_string" = type { %"struct.std::__cxx11::basic_string<char>::_Alloc_hider", i64, %union.anon }
%"struct.std::__cxx11::basic_string<char>::_Alloc_hider" = type { ptr }
%union.anon = type { i64, [8 x i8] }
%"class.std::allocator.20" = type { i8 }

@.str = private unnamed_addr constant [41 x i8] c"The library is built without Clp support\00", align 1
@__func__._ZN2cv9videostab18LpMotionStabilizer9stabilizeEiRKSt6vectorINS_3MatESaIS3_EERKNS_5RangeEPS3_ = private unnamed_addr constant [10 x i8] c"stabilize\00", align 1
@.str.1 = private unnamed_addr constant [152 x i8] c"generated/home/dtcxzyw/WorkSpace/Projects/compilers/llvm-opt-benchmark/bench/opencv/contrib/opencv_contrib/modules/videostab/src/motion_stabilizing.cpp\00", align 1

; Function Attrs: mustprogress uwtable
define void @_ZN2cv9videostab18LpMotionStabilizer9stabilizeEiRKSt6vectorINS_3MatESaIS3_EERKNS_5RangeEPS3_(ptr noundef nonnull align 8 dereferenceable(232) %0, i32 noundef %1, ptr noundef nonnull align 8 dereferenceable(24) %2, ptr noundef nonnull align 4 dereferenceable(8) %3, ptr noundef %4) unnamed_addr #4 align 2 personality ptr @__gxx_personality_v0 {
  %6 = alloca ptr, align 8
  %7 = alloca i32, align 4
  %8 = alloca ptr, align 8
  %9 = alloca ptr, align 8
  %10 = alloca ptr, align 8
  %11 = alloca %"class.std::__cxx11::basic_string", align 8
  %12 = alloca %"class.std::allocator.20", align 1
  %13 = alloca ptr, align 8
  %14 = alloca i32, align 4
  store ptr %0, ptr %6, align 8
  store i32 %1, ptr %7, align 4
  store ptr %2, ptr %8, align 8
  store ptr %3, ptr %9, align 8
  store ptr %4, ptr %10, align 8
  call void @_ZNSaIcEC1Ev(ptr noundef nonnull align 1 dereferenceable(1) %12) #3
  invoke void @_ZNSt7__cxx1112basic_stringIcSt11char_traitsIcESaIcEEC1EPKcRKS3_(ptr noundef nonnull align 8 dereferenceable(32) %11, ptr noundef @.str, ptr noundef nonnull align 1 dereferenceable(1) %12)
          to label %15 unwind label %17

15:                                               ; preds = %5
  invoke void @_ZN2cv5errorEiRKNSt7__cxx1112basic_stringIcSt11char_traitsIcESaIcEEEPKcS9_i(i32 noundef -2, ptr noundef nonnull align 8 dereferenceable(32) %11, ptr noundef @__func__._ZN2cv9videostab18LpMotionStabilizer9stabilizeEiRKSt6vectorINS_3MatESaIS3_EERKNS_5RangeEPS3_, ptr noundef @.str.1, i32 noundef 137) #15
          to label %16 unwind label %21

16:                                               ; preds = %15
  unreachable

17:                                               ; preds = %5
  %18 = landingpad { ptr, i32 }
          cleanup
  %19 = extractvalue { ptr, i32 } %18, 0
  store ptr %19, ptr %13, align 8
  %20 = extractvalue { ptr, i32 } %18, 1
  store i32 %20, ptr %14, align 4
  br label %25

21:                                               ; preds = %15
  %22 = landingpad { ptr, i32 }
          cleanup
  %23 = extractvalue { ptr, i32 } %22, 0
  store ptr %23, ptr %13, align 8
  %24 = extractvalue { ptr, i32 } %22, 1
  store i32 %24, ptr %14, align 4
  call void @_ZNSt7__cxx1112basic_stringIcSt11char_traitsIcESaIcEED1Ev(ptr noundef nonnull align 8 dereferenceable(32) %11) #3
  br label %25

25:                                               ; preds = %21, %17
  call void @_ZNSaIcED1Ev(ptr noundef nonnull align 1 dereferenceable(1) %12) #3
  br label %26

26:                                               ; preds = %25
  %27 = load ptr, ptr %13, align 8
  %28 = load i32, ptr %14, align 4
  %29 = insertvalue { ptr, i32 } poison, ptr %27, 0
  %30 = insertvalue { ptr, i32 } %29, i32 %28, 1
  resume { ptr, i32 } %30
}